;--------------------------------------------------------
; File Created by SDCC : free open source ANSI-C Compiler
; Version 4.2.0 #13081 (MINGW64)
;--------------------------------------------------------
	.module main
	.optsdcc -mmcs51 --model-large
	
;--------------------------------------------------------
; Public variables in this module
;--------------------------------------------------------
	.globl _main
	.globl _read_mp3_files
	.globl _print_buffer
	.globl __sdcc_external_startup
	.globl _disk_initialize
	.globl _pf_readdir
	.globl _pf_opendir
	.globl _pf_read
	.globl _pf_open
	.globl _pf_mount
	.globl _write_to_DAC_and_EEPROM
	.globl _reset_DAC
	.globl _init_timer0
	.globl _lcdinit
	.globl _get_card_type
	.globl _spi_init
	.globl _init_serial
	.globl _printf_tiny
	.globl _TF1
	.globl _TR1
	.globl _TF0
	.globl _TR0
	.globl _IE1
	.globl _IT1
	.globl _IE0
	.globl _IT0
	.globl _SM0
	.globl _SM1
	.globl _SM2
	.globl _REN
	.globl _TB8
	.globl _RB8
	.globl _TI
	.globl _RI
	.globl _CY
	.globl _AC
	.globl _F0
	.globl _RS1
	.globl _RS0
	.globl _OV
	.globl _F1
	.globl _P
	.globl _RD
	.globl _WR
	.globl _T1
	.globl _T0
	.globl _INT1
	.globl _INT0
	.globl _TXD0
	.globl _TXD
	.globl _RXD0
	.globl _RXD
	.globl _P3_7
	.globl _P3_6
	.globl _P3_5
	.globl _P3_4
	.globl _P3_3
	.globl _P3_2
	.globl _P3_1
	.globl _P3_0
	.globl _P2_7
	.globl _P2_6
	.globl _P2_5
	.globl _P2_4
	.globl _P2_3
	.globl _P2_2
	.globl _P2_1
	.globl _P2_0
	.globl _P1_7
	.globl _P1_6
	.globl _P1_5
	.globl _P1_4
	.globl _P1_3
	.globl _P1_2
	.globl _P1_1
	.globl _P1_0
	.globl _P0_7
	.globl _P0_6
	.globl _P0_5
	.globl _P0_4
	.globl _P0_3
	.globl _P0_2
	.globl _P0_1
	.globl _P0_0
	.globl _PS
	.globl _PT1
	.globl _PX1
	.globl _PT0
	.globl _PX0
	.globl _EA
	.globl _ES
	.globl _ET1
	.globl _EX1
	.globl _ET0
	.globl _EX0
	.globl _BREG_F7
	.globl _BREG_F6
	.globl _BREG_F5
	.globl _BREG_F4
	.globl _BREG_F3
	.globl _BREG_F2
	.globl _BREG_F1
	.globl _BREG_F0
	.globl _P5_7
	.globl _P5_6
	.globl _P5_5
	.globl _P5_4
	.globl _P5_3
	.globl _P5_2
	.globl _P5_1
	.globl _P5_0
	.globl _P4_7
	.globl _P4_6
	.globl _P4_5
	.globl _P4_4
	.globl _P4_3
	.globl _P4_2
	.globl _P4_1
	.globl _P4_0
	.globl _PX0L
	.globl _PT0L
	.globl _PX1L
	.globl _PT1L
	.globl _PSL
	.globl _PT2L
	.globl _PPCL
	.globl _EC
	.globl _CCF0
	.globl _CCF1
	.globl _CCF2
	.globl _CCF3
	.globl _CCF4
	.globl _CR
	.globl _CF
	.globl _TF2
	.globl _EXF2
	.globl _RCLK
	.globl _TCLK
	.globl _EXEN2
	.globl _TR2
	.globl _C_T2
	.globl _CP_RL2
	.globl _T2CON_7
	.globl _T2CON_6
	.globl _T2CON_5
	.globl _T2CON_4
	.globl _T2CON_3
	.globl _T2CON_2
	.globl _T2CON_1
	.globl _T2CON_0
	.globl _PT2
	.globl _ET2
	.globl _TMOD
	.globl _TL1
	.globl _TL0
	.globl _TH1
	.globl _TH0
	.globl _TCON
	.globl _SP
	.globl _SCON
	.globl _SBUF0
	.globl _SBUF
	.globl _PSW
	.globl _PCON
	.globl _P3
	.globl _P2
	.globl _P1
	.globl _P0
	.globl _IP
	.globl _IE
	.globl _DP0L
	.globl _DPL
	.globl _DP0H
	.globl _DPH
	.globl _B
	.globl _ACC
	.globl _EECON
	.globl _KBF
	.globl _KBE
	.globl _KBLS
	.globl _BRL
	.globl _BDRCON
	.globl _T2MOD
	.globl _SPDAT
	.globl _SPSTA
	.globl _SPCON
	.globl _SADEN
	.globl _SADDR
	.globl _WDTPRG
	.globl _WDTRST
	.globl _P5
	.globl _P4
	.globl _IPH1
	.globl _IPL1
	.globl _IPH0
	.globl _IPL0
	.globl _IEN1
	.globl _IEN0
	.globl _CMOD
	.globl _CL
	.globl _CH
	.globl _CCON
	.globl _CCAPM4
	.globl _CCAPM3
	.globl _CCAPM2
	.globl _CCAPM1
	.globl _CCAPM0
	.globl _CCAP4L
	.globl _CCAP3L
	.globl _CCAP2L
	.globl _CCAP1L
	.globl _CCAP0L
	.globl _CCAP4H
	.globl _CCAP3H
	.globl _CCAP2H
	.globl _CCAP1H
	.globl _CCAP0H
	.globl _CKCON1
	.globl _CKCON0
	.globl _CKRL
	.globl _AUXR1
	.globl _AUXR
	.globl _TH2
	.globl _TL2
	.globl _RCAP2H
	.globl _RCAP2L
	.globl _T2CON
	.globl _SDCard
;--------------------------------------------------------
; special function registers
;--------------------------------------------------------
	.area RSEG    (ABS,DATA)
	.org 0x0000
_T2CON	=	0x00c8
_RCAP2L	=	0x00ca
_RCAP2H	=	0x00cb
_TL2	=	0x00cc
_TH2	=	0x00cd
_AUXR	=	0x008e
_AUXR1	=	0x00a2
_CKRL	=	0x0097
_CKCON0	=	0x008f
_CKCON1	=	0x00af
_CCAP0H	=	0x00fa
_CCAP1H	=	0x00fb
_CCAP2H	=	0x00fc
_CCAP3H	=	0x00fd
_CCAP4H	=	0x00fe
_CCAP0L	=	0x00ea
_CCAP1L	=	0x00eb
_CCAP2L	=	0x00ec
_CCAP3L	=	0x00ed
_CCAP4L	=	0x00ee
_CCAPM0	=	0x00da
_CCAPM1	=	0x00db
_CCAPM2	=	0x00dc
_CCAPM3	=	0x00dd
_CCAPM4	=	0x00de
_CCON	=	0x00d8
_CH	=	0x00f9
_CL	=	0x00e9
_CMOD	=	0x00d9
_IEN0	=	0x00a8
_IEN1	=	0x00b1
_IPL0	=	0x00b8
_IPH0	=	0x00b7
_IPL1	=	0x00b2
_IPH1	=	0x00b3
_P4	=	0x00c0
_P5	=	0x00e8
_WDTRST	=	0x00a6
_WDTPRG	=	0x00a7
_SADDR	=	0x00a9
_SADEN	=	0x00b9
_SPCON	=	0x00c3
_SPSTA	=	0x00c4
_SPDAT	=	0x00c5
_T2MOD	=	0x00c9
_BDRCON	=	0x009b
_BRL	=	0x009a
_KBLS	=	0x009c
_KBE	=	0x009d
_KBF	=	0x009e
_EECON	=	0x00d2
_ACC	=	0x00e0
_B	=	0x00f0
_DPH	=	0x0083
_DP0H	=	0x0083
_DPL	=	0x0082
_DP0L	=	0x0082
_IE	=	0x00a8
_IP	=	0x00b8
_P0	=	0x0080
_P1	=	0x0090
_P2	=	0x00a0
_P3	=	0x00b0
_PCON	=	0x0087
_PSW	=	0x00d0
_SBUF	=	0x0099
_SBUF0	=	0x0099
_SCON	=	0x0098
_SP	=	0x0081
_TCON	=	0x0088
_TH0	=	0x008c
_TH1	=	0x008d
_TL0	=	0x008a
_TL1	=	0x008b
_TMOD	=	0x0089
;--------------------------------------------------------
; special function bits
;--------------------------------------------------------
	.area RSEG    (ABS,DATA)
	.org 0x0000
_ET2	=	0x00ad
_PT2	=	0x00bd
_T2CON_0	=	0x00c8
_T2CON_1	=	0x00c9
_T2CON_2	=	0x00ca
_T2CON_3	=	0x00cb
_T2CON_4	=	0x00cc
_T2CON_5	=	0x00cd
_T2CON_6	=	0x00ce
_T2CON_7	=	0x00cf
_CP_RL2	=	0x00c8
_C_T2	=	0x00c9
_TR2	=	0x00ca
_EXEN2	=	0x00cb
_TCLK	=	0x00cc
_RCLK	=	0x00cd
_EXF2	=	0x00ce
_TF2	=	0x00cf
_CF	=	0x00df
_CR	=	0x00de
_CCF4	=	0x00dc
_CCF3	=	0x00db
_CCF2	=	0x00da
_CCF1	=	0x00d9
_CCF0	=	0x00d8
_EC	=	0x00ae
_PPCL	=	0x00be
_PT2L	=	0x00bd
_PSL	=	0x00bc
_PT1L	=	0x00bb
_PX1L	=	0x00ba
_PT0L	=	0x00b9
_PX0L	=	0x00b8
_P4_0	=	0x00c0
_P4_1	=	0x00c1
_P4_2	=	0x00c2
_P4_3	=	0x00c3
_P4_4	=	0x00c4
_P4_5	=	0x00c5
_P4_6	=	0x00c6
_P4_7	=	0x00c7
_P5_0	=	0x00e8
_P5_1	=	0x00e9
_P5_2	=	0x00ea
_P5_3	=	0x00eb
_P5_4	=	0x00ec
_P5_5	=	0x00ed
_P5_6	=	0x00ee
_P5_7	=	0x00ef
_BREG_F0	=	0x00f0
_BREG_F1	=	0x00f1
_BREG_F2	=	0x00f2
_BREG_F3	=	0x00f3
_BREG_F4	=	0x00f4
_BREG_F5	=	0x00f5
_BREG_F6	=	0x00f6
_BREG_F7	=	0x00f7
_EX0	=	0x00a8
_ET0	=	0x00a9
_EX1	=	0x00aa
_ET1	=	0x00ab
_ES	=	0x00ac
_EA	=	0x00af
_PX0	=	0x00b8
_PT0	=	0x00b9
_PX1	=	0x00ba
_PT1	=	0x00bb
_PS	=	0x00bc
_P0_0	=	0x0080
_P0_1	=	0x0081
_P0_2	=	0x0082
_P0_3	=	0x0083
_P0_4	=	0x0084
_P0_5	=	0x0085
_P0_6	=	0x0086
_P0_7	=	0x0087
_P1_0	=	0x0090
_P1_1	=	0x0091
_P1_2	=	0x0092
_P1_3	=	0x0093
_P1_4	=	0x0094
_P1_5	=	0x0095
_P1_6	=	0x0096
_P1_7	=	0x0097
_P2_0	=	0x00a0
_P2_1	=	0x00a1
_P2_2	=	0x00a2
_P2_3	=	0x00a3
_P2_4	=	0x00a4
_P2_5	=	0x00a5
_P2_6	=	0x00a6
_P2_7	=	0x00a7
_P3_0	=	0x00b0
_P3_1	=	0x00b1
_P3_2	=	0x00b2
_P3_3	=	0x00b3
_P3_4	=	0x00b4
_P3_5	=	0x00b5
_P3_6	=	0x00b6
_P3_7	=	0x00b7
_RXD	=	0x00b0
_RXD0	=	0x00b0
_TXD	=	0x00b1
_TXD0	=	0x00b1
_INT0	=	0x00b2
_INT1	=	0x00b3
_T0	=	0x00b4
_T1	=	0x00b5
_WR	=	0x00b6
_RD	=	0x00b7
_P	=	0x00d0
_F1	=	0x00d1
_OV	=	0x00d2
_RS0	=	0x00d3
_RS1	=	0x00d4
_F0	=	0x00d5
_AC	=	0x00d6
_CY	=	0x00d7
_RI	=	0x0098
_TI	=	0x0099
_RB8	=	0x009a
_TB8	=	0x009b
_REN	=	0x009c
_SM2	=	0x009d
_SM1	=	0x009e
_SM0	=	0x009f
_IT0	=	0x0088
_IE0	=	0x0089
_IT1	=	0x008a
_IE1	=	0x008b
_TR0	=	0x008c
_TF0	=	0x008d
_TR1	=	0x008e
_TF1	=	0x008f
;--------------------------------------------------------
; overlayable register banks
;--------------------------------------------------------
	.area REG_BANK_0	(REL,OVR,DATA)
	.ds 8
;--------------------------------------------------------
; internal ram data
;--------------------------------------------------------
	.area DSEG    (DATA)
;--------------------------------------------------------
; overlayable items in internal ram
;--------------------------------------------------------
;--------------------------------------------------------
; Stack segment in internal ram
;--------------------------------------------------------
	.area	SSEG
__start__stack:
	.ds	1

;--------------------------------------------------------
; indirectly addressable internal ram data
;--------------------------------------------------------
	.area ISEG    (DATA)
;--------------------------------------------------------
; absolute internal ram data
;--------------------------------------------------------
	.area IABS    (ABS,DATA)
	.area IABS    (ABS,DATA)
;--------------------------------------------------------
; bit data
;--------------------------------------------------------
	.area BSEG    (BIT)
;--------------------------------------------------------
; paged external ram data
;--------------------------------------------------------
	.area PSEG    (PAG,XDATA)
;--------------------------------------------------------
; external ram data
;--------------------------------------------------------
	.area XSEG    (XDATA)
_SDCard::
	.ds 42
_print_buffer_buff_65536_85:
	.ds 3
_read_mp3_files_fno_65536_91:
	.ds 22
_read_mp3_files_dir_65536_91:
	.ds 17
_read_mp3_files_buff_65536_91:
	.ds 64
_read_mp3_files_br_65536_91:
	.ds 2
;--------------------------------------------------------
; absolute external ram data
;--------------------------------------------------------
	.area XABS    (ABS,XDATA)
;--------------------------------------------------------
; external initialized ram data
;--------------------------------------------------------
	.area XISEG   (XDATA)
	.area HOME    (CODE)
	.area GSINIT0 (CODE)
	.area GSINIT1 (CODE)
	.area GSINIT2 (CODE)
	.area GSINIT3 (CODE)
	.area GSINIT4 (CODE)
	.area GSINIT5 (CODE)
	.area GSINIT  (CODE)
	.area GSFINAL (CODE)
	.area CSEG    (CODE)
;--------------------------------------------------------
; interrupt vector
;--------------------------------------------------------
	.area HOME    (CODE)
__interrupt_vect:
	ljmp	__sdcc_gsinit_startup
	reti
	.ds	7
	ljmp	_Timer0_IRQHandler
;--------------------------------------------------------
; global & static initialisations
;--------------------------------------------------------
	.area HOME    (CODE)
	.area GSINIT  (CODE)
	.area GSFINAL (CODE)
	.area GSINIT  (CODE)
	.globl __sdcc_gsinit_startup
	.globl __sdcc_program_startup
	.globl __start__stack
	.globl __mcs51_genXINIT
	.globl __mcs51_genXRAMCLEAR
	.globl __mcs51_genRAMCLEAR
	.area GSFINAL (CODE)
	ljmp	__sdcc_program_startup
;--------------------------------------------------------
; Home
;--------------------------------------------------------
	.area HOME    (CODE)
	.area HOME    (CODE)
__sdcc_program_startup:
	ljmp	_main
;	return from main will return to caller
;--------------------------------------------------------
; code
;--------------------------------------------------------
	.area CSEG    (CODE)
;------------------------------------------------------------
;Allocation info for local variables in function '_sdcc_external_startup'
;------------------------------------------------------------
;	main.c:32: _sdcc_external_startup()
;	-----------------------------------------
;	 function _sdcc_external_startup
;	-----------------------------------------
__sdcc_external_startup:
	ar7 = 0x07
	ar6 = 0x06
	ar5 = 0x05
	ar4 = 0x04
	ar3 = 0x03
	ar2 = 0x02
	ar1 = 0x01
	ar0 = 0x00
;	main.c:35: AUXR |= (XRS1 | XRS0);
	orl	_AUXR,#0x0c
;	main.c:36: AUXR &= ~(XRS2);
	anl	_AUXR,#0xef
;	main.c:38: init_serial();
	lcall	_init_serial
;	main.c:39: return 0;
	mov	dptr,#0x0000
;	main.c:40: }
	ret
;------------------------------------------------------------
;Allocation info for local variables in function 'print_buffer'
;------------------------------------------------------------
;buff                      Allocated with name '_print_buffer_buff_65536_85'
;i                         Allocated with name '_print_buffer_i_131072_87'
;------------------------------------------------------------
;	main.c:42: void print_buffer(const BYTE *buff)
;	-----------------------------------------
;	 function print_buffer
;	-----------------------------------------
_print_buffer:
	mov	r7,b
	mov	r6,dph
	mov	a,dpl
	mov	dptr,#_print_buffer_buff_65536_85
	movx	@dptr,a
	mov	a,r6
	inc	dptr
	movx	@dptr,a
	mov	a,r7
	inc	dptr
	movx	@dptr,a
;	main.c:44: for(int i=0;i<RD_BLOCK_SIZE;i++){
	mov	dptr,#_print_buffer_buff_65536_85
	movx	a,@dptr
	mov	r5,a
	inc	dptr
	movx	a,@dptr
	mov	r6,a
	inc	dptr
	movx	a,@dptr
	mov	r7,a
	mov	r3,#0x00
	mov	r4,#0x00
00105$:
	clr	c
	mov	a,r3
	subb	a,#0x40
	mov	a,r4
	xrl	a,#0x80
	subb	a,#0x80
	jc	00122$
	ret
00122$:
;	main.c:45: if(((i + 1) >> 4) == 0){
	mov	a,#0x01
	add	a,r3
	mov	r1,a
	clr	a
	addc	a,r4
	swap	a
	xch	a,r1
	swap	a
	anl	a,#0x0f
	xrl	a,r1
	xch	a,r1
	anl	a,#0x0f
	xch	a,r1
	xrl	a,r1
	xch	a,r1
	jnb	acc.3,00123$
	orl	a,#0xf0
00123$:
	orl	a,r1
	jnz	00102$
;	main.c:46: printf_tiny("\r\n");
	push	ar7
	push	ar6
	push	ar5
	push	ar4
	push	ar3
	mov	a,#___str_0
	push	acc
	mov	a,#(___str_0 >> 8)
	push	acc
	lcall	_printf_tiny
	dec	sp
	dec	sp
	pop	ar3
	pop	ar4
	pop	ar5
	pop	ar6
	pop	ar7
00102$:
;	main.c:48: printf_tiny("%x ", buff[i]);
	mov	a,r3
	add	a,r5
	mov	r0,a
	mov	a,r4
	addc	a,r6
	mov	r1,a
	mov	ar2,r7
	mov	dpl,r0
	mov	dph,r1
	mov	b,r2
	lcall	__gptrget
	mov	r0,a
	mov	r2,#0x00
	push	ar7
	push	ar6
	push	ar5
	push	ar4
	push	ar3
	push	ar0
	push	ar2
	mov	a,#___str_1
	push	acc
	mov	a,#(___str_1 >> 8)
	push	acc
	lcall	_printf_tiny
	mov	a,sp
	add	a,#0xfc
	mov	sp,a
	pop	ar3
	pop	ar4
	pop	ar5
	pop	ar6
	pop	ar7
;	main.c:44: for(int i=0;i<RD_BLOCK_SIZE;i++){
	inc	r3
	cjne	r3,#0x00,00125$
	inc	r4
00125$:
;	main.c:50: }
	ljmp	00105$
;------------------------------------------------------------
;Allocation info for local variables in function 'read_mp3_files'
;------------------------------------------------------------
;res                       Allocated with name '_read_mp3_files_res_65536_91'
;fno                       Allocated with name '_read_mp3_files_fno_65536_91'
;dir                       Allocated with name '_read_mp3_files_dir_65536_91'
;buff                      Allocated with name '_read_mp3_files_buff_65536_91'
;br                        Allocated with name '_read_mp3_files_br_65536_91'
;------------------------------------------------------------
;	main.c:52: void read_mp3_files(void)
;	-----------------------------------------
;	 function read_mp3_files
;	-----------------------------------------
_read_mp3_files:
;	main.c:60: res = pf_opendir(&dir, "/");
	mov	dptr,#_pf_opendir_PARM_2
	mov	a,#___str_2
	movx	@dptr,a
	mov	a,#(___str_2 >> 8)
	inc	dptr
	movx	@dptr,a
	mov	a,#0x80
	inc	dptr
	movx	@dptr,a
	mov	dptr,#_read_mp3_files_dir_65536_91
	mov	b,#0x00
	lcall	_pf_opendir
	mov	a,dpl
;	main.c:61: if (res == FR_OK) {
	jz	00145$
	ret
00145$:
00114$:
;	main.c:64: res = pf_readdir(&dir, &fno);
	mov	dptr,#_pf_readdir_PARM_2
	mov	a,#_read_mp3_files_fno_65536_91
	movx	@dptr,a
	mov	a,#(_read_mp3_files_fno_65536_91 >> 8)
	inc	dptr
	movx	@dptr,a
	clr	a
	inc	dptr
	movx	@dptr,a
	mov	dptr,#_read_mp3_files_dir_65536_91
	mov	b,#0x00
	lcall	_pf_readdir
	mov	a,dpl
;	main.c:65: if (res != FR_OK || fno.fname[0] == 0){
	jnz	00101$
	mov	dptr,#(_read_mp3_files_fno_65536_91 + 0x0009)
	movx	a,@dptr
	jnz	00102$
00101$:
;	main.c:66: printf_tiny("No more files found\r\n");
	mov	a,#___str_3
	push	acc
	mov	a,#(___str_3 >> 8)
	push	acc
	lcall	_printf_tiny
	dec	sp
	dec	sp
;	main.c:67: break;
	ret
00102$:
;	main.c:69: printf_tiny("reading file /%s ...\r\n",fno.fname);
	mov	a,#(_read_mp3_files_fno_65536_91 + 0x0009)
	push	acc
	mov	a,#((_read_mp3_files_fno_65536_91 + 0x0009) >> 8)
	push	acc
	clr	a
	push	acc
	mov	a,#___str_4
	push	acc
	mov	a,#(___str_4 >> 8)
	push	acc
	lcall	_printf_tiny
	mov	a,sp
	add	a,#0xfb
	mov	sp,a
;	main.c:72: res = pf_open(fno.fname);
	mov	dptr,#(_read_mp3_files_fno_65536_91 + 0x0009)
	mov	b,#0x00
	lcall	_pf_open
	mov	a,dpl
;	main.c:73: if (res != FR_OK){
	jz	00108$
;	main.c:74: printf_tiny("Error: failed to open %s\r\n", fno.fname);
	mov	a,#(_read_mp3_files_fno_65536_91 + 0x0009)
	push	acc
	mov	a,#((_read_mp3_files_fno_65536_91 + 0x0009) >> 8)
	push	acc
	clr	a
	push	acc
	mov	a,#___str_5
	push	acc
	mov	a,#(___str_5 >> 8)
	push	acc
	lcall	_printf_tiny
	mov	a,sp
	add	a,#0xfb
	mov	sp,a
;	main.c:75: break;
;	main.c:79: do{
	ret
00108$:
;	main.c:81: res = pf_read(buff, RD_BLOCK_SIZE, &br);
	mov	dptr,#_pf_read_PARM_2
	mov	a,#0x40
	movx	@dptr,a
	clr	a
	inc	dptr
	movx	@dptr,a
	mov	dptr,#_pf_read_PARM_3
	mov	a,#_read_mp3_files_br_65536_91
	movx	@dptr,a
	mov	a,#(_read_mp3_files_br_65536_91 >> 8)
	inc	dptr
	movx	@dptr,a
	clr	a
	inc	dptr
	movx	@dptr,a
	mov	dptr,#_read_mp3_files_buff_65536_91
	mov	b,#0x00
	lcall	_pf_read
	mov	a,dpl
;	main.c:83: if(res != FR_OK){
	jz	00107$
;	main.c:84: printf_tiny("Error: failed to read %s\r\n", fno.fname);
	mov	a,#(_read_mp3_files_fno_65536_91 + 0x0009)
	push	acc
	mov	a,#((_read_mp3_files_fno_65536_91 + 0x0009) >> 8)
	push	acc
	clr	a
	push	acc
	mov	a,#___str_6
	push	acc
	mov	a,#(___str_6 >> 8)
	push	acc
	lcall	_printf_tiny
	mov	a,sp
	add	a,#0xfb
	mov	sp,a
;	main.c:85: break;
	ljmp	00114$
00107$:
;	main.c:88: print_buffer((const BYTE *)buff);
	mov	dptr,#_read_mp3_files_buff_65536_91
	mov	b,#0x00
	lcall	_print_buffer
;	main.c:90: }while(br == RD_BLOCK_SIZE); //exit when reached EOF
	mov	dptr,#_read_mp3_files_br_65536_91
	movx	a,@dptr
	mov	r6,a
	inc	dptr
	movx	a,@dptr
	mov	r7,a
	cjne	r6,#0x40,00150$
	cjne	r7,#0x00,00150$
	sjmp	00108$
00150$:
	ljmp	00114$
;	main.c:94: return;
;	main.c:95: }
	ret
;------------------------------------------------------------
;Allocation info for local variables in function 'main'
;------------------------------------------------------------
;	main.c:98: void main(void)
;	-----------------------------------------
;	 function main
;	-----------------------------------------
_main:
;	main.c:101: init_timer0();
	lcall	_init_timer0
;	main.c:102: lcdinit();
	lcall	_lcdinit
;	main.c:103: spi_init();
	lcall	_spi_init
;	main.c:104: reset_DAC();
	lcall	_reset_DAC
;	main.c:106: write_to_DAC_and_EEPROM(0);
	mov	dptr,#0x0000
	lcall	_write_to_DAC_and_EEPROM
;	main.c:109: if( pf_mount(&SDCard))
	mov	dptr,#_SDCard
	mov	b,#0x00
	lcall	_pf_mount
	mov	a,dpl
	jz	00105$
;	main.c:111: printf_tiny("Couldn't mount drive...\r\n");
	mov	a,#___str_7
	push	acc
	mov	a,#(___str_7 >> 8)
	push	acc
	lcall	_printf_tiny
	dec	sp
	dec	sp
;	main.c:112: while( 1 );
00102$:
	sjmp	00102$
00105$:
;	main.c:115: printf_tiny("SD card mounted\r\n");
	mov	a,#___str_8
	push	acc
	mov	a,#(___str_8 >> 8)
	push	acc
	lcall	_printf_tiny
	dec	sp
	dec	sp
;	main.c:118: if( disk_initialize( ) & STA_NOINIT )
	lcall	_disk_initialize
	mov	a,dpl
	jnb	acc.0,00115$
;	main.c:120: switch( get_card_type() )
	lcall	_get_card_type
	mov	r6,dpl
	mov	r7,dph
	cjne	r6,#0x00,00155$
	cjne	r7,#0x00,00155$
	sjmp	00106$
00155$:
	cjne	r6,#0x01,00156$
	cjne	r7,#0x00,00156$
	sjmp	00107$
00156$:
;	main.c:122: case 0 :
	cjne	r6,#0x02,00109$
	cjne	r7,#0x00,00109$
	sjmp	00108$
00106$:
;	main.c:123: printf_tiny("Couldn't find SD card\r\n");
	mov	a,#___str_9
	push	acc
	mov	a,#(___str_9 >> 8)
	push	acc
	lcall	_printf_tiny
	dec	sp
	dec	sp
;	main.c:124: break;
;	main.c:125: case 1 :
	sjmp	00112$
00107$:
;	main.c:126: printf_tiny("Card type is MMC - Can't use this type\r\n");
	mov	a,#___str_10
	push	acc
	mov	a,#(___str_10 >> 8)
	push	acc
	lcall	_printf_tiny
	dec	sp
	dec	sp
;	main.c:127: break;
;	main.c:128: case 2 :
	sjmp	00112$
00108$:
;	main.c:129: printf_tiny("Couldn't initialize SD Card drive...\r\n");
	mov	a,#___str_11
	push	acc
	mov	a,#(___str_11 >> 8)
	push	acc
	lcall	_printf_tiny
	dec	sp
	dec	sp
;	main.c:130: break;
;	main.c:131: default :
	sjmp	00112$
00109$:
;	main.c:132: printf_tiny("Unknown Card Type error...\r\n");
	mov	a,#___str_12
	push	acc
	mov	a,#(___str_12 >> 8)
	push	acc
	lcall	_printf_tiny
	dec	sp
	dec	sp
;	main.c:135: while( 1 );
00112$:
	sjmp	00112$
00115$:
;	main.c:138: printf_tiny("SD card initialized\r\n");
	mov	a,#___str_13
	push	acc
	mov	a,#(___str_13 >> 8)
	push	acc
	lcall	_printf_tiny
	dec	sp
	dec	sp
;	main.c:141: printf_tiny("Finished reading files\r\n");
	mov	a,#___str_14
	push	acc
	mov	a,#(___str_14 >> 8)
	push	acc
	lcall	_printf_tiny
	dec	sp
	dec	sp
;	main.c:142: read_mp3_files();
	lcall	_read_mp3_files
;	main.c:143: while( 1 );
00117$:
;	main.c:144: }
	sjmp	00117$
	.area CSEG    (CODE)
	.area CONST   (CODE)
	.area CONST   (CODE)
___str_0:
	.db 0x0d
	.db 0x0a
	.db 0x00
	.area CSEG    (CODE)
	.area CONST   (CODE)
___str_1:
	.ascii "%x "
	.db 0x00
	.area CSEG    (CODE)
	.area CONST   (CODE)
___str_2:
	.ascii "/"
	.db 0x00
	.area CSEG    (CODE)
	.area CONST   (CODE)
___str_3:
	.ascii "No more files found"
	.db 0x0d
	.db 0x0a
	.db 0x00
	.area CSEG    (CODE)
	.area CONST   (CODE)
___str_4:
	.ascii "reading file /%s ..."
	.db 0x0d
	.db 0x0a
	.db 0x00
	.area CSEG    (CODE)
	.area CONST   (CODE)
___str_5:
	.ascii "Error: failed to open %s"
	.db 0x0d
	.db 0x0a
	.db 0x00
	.area CSEG    (CODE)
	.area CONST   (CODE)
___str_6:
	.ascii "Error: failed to read %s"
	.db 0x0d
	.db 0x0a
	.db 0x00
	.area CSEG    (CODE)
	.area CONST   (CODE)
___str_7:
	.ascii "Couldn't mount drive..."
	.db 0x0d
	.db 0x0a
	.db 0x00
	.area CSEG    (CODE)
	.area CONST   (CODE)
___str_8:
	.ascii "SD card mounted"
	.db 0x0d
	.db 0x0a
	.db 0x00
	.area CSEG    (CODE)
	.area CONST   (CODE)
___str_9:
	.ascii "Couldn't find SD card"
	.db 0x0d
	.db 0x0a
	.db 0x00
	.area CSEG    (CODE)
	.area CONST   (CODE)
___str_10:
	.ascii "Card type is MMC - Can't use this type"
	.db 0x0d
	.db 0x0a
	.db 0x00
	.area CSEG    (CODE)
	.area CONST   (CODE)
___str_11:
	.ascii "Couldn't initialize SD Card drive..."
	.db 0x0d
	.db 0x0a
	.db 0x00
	.area CSEG    (CODE)
	.area CONST   (CODE)
___str_12:
	.ascii "Unknown Card Type error..."
	.db 0x0d
	.db 0x0a
	.db 0x00
	.area CSEG    (CODE)
	.area CONST   (CODE)
___str_13:
	.ascii "SD card initialized"
	.db 0x0d
	.db 0x0a
	.db 0x00
	.area CSEG    (CODE)
	.area CONST   (CODE)
___str_14:
	.ascii "Finished reading files"
	.db 0x0d
	.db 0x0a
	.db 0x00
	.area CSEG    (CODE)
	.area XINIT   (CODE)
	.area CABS    (ABS,CODE)
